; Function Attrs: inlinehint nounwind uwtable
define internal fastcc void @pmix_bfrops_base_tma_node_stats_free(ptr noundef %0, i64 noundef %1, ptr noundef %2) unnamed_addr #9 {
  %.not = icmp eq ptr %0, null
  br i1 %.not, label %pmix_tma_free.exit, label %.preheader

.preheader:                                       ; preds = %3
  %.not13 = icmp eq i64 %1, 0
  br i1 %.not13, label %._crit_edge, label %.lr.ph

.lr.ph:                                           ; preds = %.preheader
  %.not.i.i = icmp eq ptr %2, null
  %4 = getelementptr inbounds nuw i8, ptr %2, i64 40
  br label %9

._crit_edge:                                      ; preds = %pmix_bfrops_base_tma_node_stats_destruct.exit, %.preheader
  %.not.i = icmp eq ptr %2, null
  br i1 %.not.i, label %8, label %5

5:                                                ; preds = %._crit_edge
  %6 = getelementptr inbounds nuw i8, ptr %2, i64 40
  %7 = load ptr, ptr %6, align 8, !tbaa !59
  tail call void %7(ptr noundef nonnull %2, ptr noundef nonnull %0) #11
  br label %pmix_tma_free.exit

8:                                                ; preds = %._crit_edge
  tail call void @free(ptr noundef nonnull %0) #11
  br label %pmix_tma_free.exit

9:                                                ; preds = %.lr.ph, %pmix_bfrops_base_tma_node_stats_destruct.exit
  %.012 = phi i64 [ 0, %.lr.ph ], [ %46, %pmix_bfrops_base_tma_node_stats_destruct.exit ]
  %10 = getelementptr inbounds nuw %struct.pmix_node_stats_t, ptr %0, i64 %.012
  %11 = load ptr, ptr %10, align 8, !tbaa !113
  %.not.i9 = icmp eq ptr %11, null
  br i1 %.not.i9, label %16, label %12

12:                                               ; preds = %9
  br i1 %.not.i.i, label %15, label %13

13:                                               ; preds = %12
  %14 = load ptr, ptr %4, align 8, !tbaa !59
  tail call void %14(ptr noundef nonnull %2, ptr noundef nonnull %11) #11
  br label %pmix_tma_free.exit.i

15:                                               ; preds = %12
  tail call void @free(ptr noundef nonnull %11) #11
  br label %pmix_tma_free.exit.i

pmix_tma_free.exit.i:                             ; preds = %15, %13
  store ptr null, ptr %10, align 8, !tbaa !113
  br label %16

16:                                               ; preds = %pmix_tma_free.exit.i, %9
  %17 = getelementptr inbounds nuw i8, ptr %10, i64 72
  %18 = load ptr, ptr %17, align 8, !tbaa !115
  %.not18.i = icmp eq ptr %18, null
  br i1 %.not18.i, label %31, label %.preheader.i.i

.preheader.i.i:                                   ; preds = %16
  %19 = getelementptr inbounds nuw i8, ptr %10, i64 80
  %20 = load i64, ptr %19, align 8, !tbaa !116
  %.not11.i.i = icmp eq i64 %20, 0
  br i1 %.not11.i.i, label %._crit_edge.i.i, label %.lr.ph.i.i

.lr.ph.i.i:                                       ; preds = %.preheader.i.i
  br i1 %.not.i.i, label %.lr.ph.split.us.i.i, label %.lr.ph.split.i.i

.lr.ph.split.us.i.i:                              ; preds = %.lr.ph.i.i, %pmix_bfrops_base_tma_disk_stats_destruct.exit.us.i.i
  %.010.us.i.i = phi i64 [ %23, %pmix_bfrops_base_tma_disk_stats_destruct.exit.us.i.i ], [ 0, %.lr.ph.i.i ]
  %21 = getelementptr inbounds nuw %struct.pmix_disk_stats_t, ptr %18, i64 %.010.us.i.i
  %22 = load ptr, ptr %21, align 8, !tbaa !88
  %.not.i9.us.i.i = icmp eq ptr %22, null
  br i1 %.not.i9.us.i.i, label %pmix_bfrops_base_tma_disk_stats_destruct.exit.us.i.i, label %pmix_tma_free.exit.i.us.i.i

pmix_tma_free.exit.i.us.i.i:                      ; preds = %.lr.ph.split.us.i.i
  tail call void @free(ptr noundef nonnull %22) #11
  store ptr null, ptr %21, align 8, !tbaa !88
  br label %pmix_bfrops_base_tma_disk_stats_destruct.exit.us.i.i

pmix_bfrops_base_tma_disk_stats_destruct.exit.us.i.i: ; preds = %pmix_tma_free.exit.i.us.i.i, %.lr.ph.split.us.i.i
  %23 = add nuw i64 %.010.us.i.i, 1
  %exitcond13.not.i.i = icmp eq i64 %23, %20
  br i1 %exitcond13.not.i.i, label %._crit_edge.i.i, label %.lr.ph.split.us.i.i, !llvm.loop !117

._crit_edge.i.i:                                  ; preds = %pmix_bfrops_base_tma_disk_stats_destruct.exit.i.i, %pmix_bfrops_base_tma_disk_stats_destruct.exit.us.i.i, %.preheader.i.i
  br i1 %.not.i.i, label %26, label %24

24:                                               ; preds = %._crit_edge.i.i
  %25 = load ptr, ptr %4, align 8, !tbaa !59
  tail call void %25(ptr noundef nonnull %2, ptr noundef nonnull %18) #11
  br label %pmix_bfrops_base_tma_disk_stats_free.exit.i

26:                                               ; preds = %._crit_edge.i.i
  tail call void @free(ptr noundef nonnull %18) #11
  br label %pmix_bfrops_base_tma_disk_stats_free.exit.i

.lr.ph.split.i.i:                                 ; preds = %.lr.ph.i.i, %pmix_bfrops_base_tma_disk_stats_destruct.exit.i.i
  %.010.i.i = phi i64 [ %30, %pmix_bfrops_base_tma_disk_stats_destruct.exit.i.i ], [ 0, %.lr.ph.i.i ]
  %27 = getelementptr inbounds nuw %struct.pmix_disk_stats_t, ptr %18, i64 %.010.i.i
  %28 = load ptr, ptr %27, align 8, !tbaa !88
  %.not.i9.i.i = icmp eq ptr %28, null
  br i1 %.not.i9.i.i, label %pmix_bfrops_base_tma_disk_stats_destruct.exit.i.i, label %pmix_tma_free.exit.i.i.i

pmix_tma_free.exit.i.i.i:                         ; preds = %.lr.ph.split.i.i
  %29 = load ptr, ptr %4, align 8, !tbaa !59
  tail call void %29(ptr noundef nonnull %2, ptr noundef nonnull %28) #11
  store ptr null, ptr %27, align 8, !tbaa !88
  br label %pmix_bfrops_base_tma_disk_stats_destruct.exit.i.i

pmix_bfrops_base_tma_disk_stats_destruct.exit.i.i: ; preds = %pmix_tma_free.exit.i.i.i, %.lr.ph.split.i.i
  %30 = add nuw i64 %.010.i.i, 1
  %exitcond.not.i.i = icmp eq i64 %30, %20
  br i1 %exitcond.not.i.i, label %._crit_edge.i.i, label %.lr.ph.split.i.i, !llvm.loop !117

pmix_bfrops_base_tma_disk_stats_free.exit.i:      ; preds = %26, %24
  tail call void @llvm.memset.p0.i64(ptr noundef nonnull align 8 dereferenceable(16) %17, i8 0, i64 16, i1 false)
  br label %31

31:                                               ; preds = %pmix_bfrops_base_tma_disk_stats_free.exit.i, %16
  %32 = getelementptr inbounds nuw i8, ptr %10, i64 88
  %33 = load ptr, ptr %32, align 8, !tbaa !118
  %.not19.i = icmp eq ptr %33, null
  br i1 %.not19.i, label %pmix_bfrops_base_tma_node_stats_destruct.exit, label %.preheader.i22.i

.preheader.i22.i:                                 ; preds = %31
  %34 = getelementptr inbounds nuw i8, ptr %10, i64 96
  %35 = load i64, ptr %34, align 8, !tbaa !119
  %.not11.i23.i = icmp eq i64 %35, 0
  br i1 %.not11.i23.i, label %._crit_edge.i31.i, label %.lr.ph.i24.i

.lr.ph.i24.i:                                     ; preds = %.preheader.i22.i
  br i1 %.not.i.i, label %.lr.ph.split.us.i33.i, label %.lr.ph.split.i26.i

.lr.ph.split.us.i33.i:                            ; preds = %.lr.ph.i24.i, %pmix_bfrops_base_tma_net_stats_destruct.exit.us.i.i
  %.010.us.i34.i = phi i64 [ %38, %pmix_bfrops_base_tma_net_stats_destruct.exit.us.i.i ], [ 0, %.lr.ph.i24.i ]
  %36 = getelementptr inbounds nuw %struct.pmix_net_stats_t, ptr %33, i64 %.010.us.i34.i
  %37 = load ptr, ptr %36, align 8, !tbaa !90
  %.not.i9.us.i35.i = icmp eq ptr %37, null
  br i1 %.not.i9.us.i35.i, label %pmix_bfrops_base_tma_net_stats_destruct.exit.us.i.i, label %pmix_tma_free.exit.i.us.i36.i

pmix_tma_free.exit.i.us.i36.i:                    ; preds = %.lr.ph.split.us.i33.i
  tail call void @free(ptr noundef nonnull %37) #11
  store ptr null, ptr %36, align 8, !tbaa !90
  br label %pmix_bfrops_base_tma_net_stats_destruct.exit.us.i.i

pmix_bfrops_base_tma_net_stats_destruct.exit.us.i.i: ; preds = %pmix_tma_free.exit.i.us.i36.i, %.lr.ph.split.us.i33.i
  %38 = add nuw i64 %.010.us.i34.i, 1
  %exitcond13.not.i37.i = icmp eq i64 %38, %35
  br i1 %exitcond13.not.i37.i, label %._crit_edge.i31.i, label %.lr.ph.split.us.i33.i, !llvm.loop !120

._crit_edge.i31.i:                                ; preds = %pmix_bfrops_base_tma_net_stats_destruct.exit.i.i, %pmix_bfrops_base_tma_net_stats_destruct.exit.us.i.i, %.preheader.i22.i
  br i1 %.not.i.i, label %41, label %39

39:                                               ; preds = %._crit_edge.i31.i
  %40 = load ptr, ptr %4, align 8, !tbaa !59
  tail call void %40(ptr noundef nonnull %2, ptr noundef nonnull %33) #11
  br label %pmix_bfrops_base_tma_net_stats_free.exit.i

41:                                               ; preds = %._crit_edge.i31.i
  tail call void @free(ptr noundef nonnull %33) #11
  br label %pmix_bfrops_base_tma_net_stats_free.exit.i

.lr.ph.split.i26.i:                               ; preds = %.lr.ph.i24.i, %pmix_bfrops_base_tma_net_stats_destruct.exit.i.i
  %.010.i27.i = phi i64 [ %45, %pmix_bfrops_base_tma_net_stats_destruct.exit.i.i ], [ 0, %.lr.ph.i24.i ]
  %42 = getelementptr inbounds nuw %struct.pmix_net_stats_t, ptr %33, i64 %.010.i27.i
  %43 = load ptr, ptr %42, align 8, !tbaa !90
  %.not.i9.i28.i = icmp eq ptr %43, null
  br i1 %.not.i9.i28.i, label %pmix_bfrops_base_tma_net_stats_destruct.exit.i.i, label %pmix_tma_free.exit.i.i29.i

pmix_tma_free.exit.i.i29.i:                       ; preds = %.lr.ph.split.i26.i
  %44 = load ptr, ptr %4, align 8, !tbaa !59
  tail call void %44(ptr noundef nonnull %2, ptr noundef nonnull %43) #11
  store ptr null, ptr %42, align 8, !tbaa !90
  br label %pmix_bfrops_base_tma_net_stats_destruct.exit.i.i

pmix_bfrops_base_tma_net_stats_destruct.exit.i.i: ; preds = %pmix_tma_free.exit.i.i29.i, %.lr.ph.split.i26.i
  %45 = add nuw i64 %.010.i27.i, 1
  %exitcond.not.i30.i = icmp eq i64 %45, %35
  br i1 %exitcond.not.i30.i, label %._crit_edge.i31.i, label %.lr.ph.split.i26.i, !llvm.loop !120

pmix_bfrops_base_tma_net_stats_free.exit.i:       ; preds = %41, %39
  tail call void @llvm.memset.p0.i64(ptr noundef nonnull align 8 dereferenceable(16) %32, i8 0, i64 16, i1 false)
  br label %pmix_bfrops_base_tma_node_stats_destruct.exit

pmix_bfrops_base_tma_node_stats_destruct.exit:    ; preds = %31, %pmix_bfrops_base_tma_net_stats_free.exit.i
  %46 = add nuw i64 %.012, 1
  %exitcond.not = icmp eq i64 %46, %1
  br i1 %exitcond.not, label %._crit_edge, label %9, !llvm.loop !121

pmix_tma_free.exit:                               ; preds = %8, %5, %3
  ret void
}